; Function Attrs: nounwind uwtable
define dso_local i32 @partition_rbound_datum_cmp(ptr noundef %0, ptr noundef readonly captures(none) %1, ptr noundef readonly captures(none) %2, ptr noundef readonly captures(none) %3, ptr noundef readonly captures(none) %4, i32 noundef %5) local_unnamed_addr #0 {
  %7 = icmp sgt i32 %5, 0
  br i1 %7, label %.lr.ph.preheader, label %.loopexit

.lr.ph.preheader:                                 ; preds = %6
  %wide.trip.count = zext nneg i32 %5 to i64
  br label %.lr.ph

8:                                                ; preds = %11
  %indvars.iv.next = add nuw nsw i64 %indvars.iv, 1
  %exitcond.not = icmp eq i64 %indvars.iv.next, %wide.trip.count
  br i1 %exitcond.not, label %.loopexit, label %.lr.ph, !llvm.loop !48

.lr.ph:                                           ; preds = %.lr.ph.preheader, %8
  %indvars.iv = phi i64 [ 0, %.lr.ph.preheader ], [ %indvars.iv.next, %8 ]
  %9 = getelementptr inbounds nuw i32, ptr %3, i64 %indvars.iv
  %10 = load i32, ptr %9, align 4
  switch i32 %10, label %11 [
    i32 -1, label %.loopexit
    i32 1, label %.loopexit
  ]

11:                                               ; preds = %.lr.ph
  %12 = getelementptr inbounds nuw %struct.FmgrInfo, ptr %0, i64 %indvars.iv
  %13 = getelementptr inbounds nuw i32, ptr %1, i64 %indvars.iv
  %14 = load i32, ptr %13, align 4
  %15 = getelementptr inbounds nuw i64, ptr %2, i64 %indvars.iv
  %16 = load i64, ptr %15, align 8
  %17 = getelementptr inbounds nuw i64, ptr %4, i64 %indvars.iv
  %18 = load i64, ptr %17, align 8
  %19 = tail call i64 @FunctionCall2Coll(ptr noundef %12, i32 noundef %14, i64 noundef %16, i64 noundef %18) #12
  %20 = trunc i64 %19 to i32
  %.not = icmp eq i32 %20, 0
  br i1 %.not, label %8, label %.loopexit

.loopexit:                                        ; preds = %.lr.ph, %.lr.ph, %11, %8, %6
  %.018 = phi i32 [ -1, %6 ], [ %10, %.lr.ph ], [ %20, %11 ], [ 0, %8 ], [ %10, %.lr.ph ]
  ret i32 %.018
}